target datalayout = "e-m:e-p270:32:32-p271:32:32-p272:64:64-i64:64-i128:128-f80:128-n8:16:32:64-S128"
target triple = "x86_64-pc-linux-gnu"

%struct.H5O_storage_chunk_t = type { i32, i64, ptr, %union.anon.4 }
%union.anon.4 = type { %struct.H5O_storage_chunk_btree_t }
%struct.H5O_storage_chunk_btree_t = type { i64, ptr }
%struct.H5O_storage_chunk_earray_t = type { i64, ptr }

@H5D_init_g = external global i8, align 1
@H5_libterm_g = external global i8, align 1

; Function Attrs: nounwind uwtable
define internal i32 @H5D__earray_idx_reset(ptr noundef %0, i1 noundef zeroext %1) #0 {
  %3 = alloca ptr, align 8
  %4 = alloca i8, align 1
  store ptr %0, ptr %3, align 8, !tbaa !53
  %5 = zext i1 %1 to i8
  store i8 %5, ptr %4, align 1, !tbaa !14
  %6 = load i8, ptr @H5D_init_g, align 1, !tbaa !14, !range !16, !noundef !17
  %7 = trunc i8 %6 to i1
  br i1 %7, label %12, label %8

8:                                                ; preds = %2
  %9 = load i8, ptr @H5_libterm_g, align 1, !tbaa !14, !range !16, !noundef !17
  %10 = trunc i8 %9 to i1
  %11 = xor i1 %10, true
  br label %12

12:                                               ; preds = %8, %2
  %13 = phi i1 [ true, %2 ], [ %11, %8 ]
  %14 = xor i1 %13, true
  %15 = xor i1 %14, true
  %16 = zext i1 %15 to i32
  %17 = sext i32 %16 to i64
  %18 = call i64 @llvm.expect.i64(i64 %17, i64 1)
  %19 = icmp ne i64 %18, 0
  br i1 %19, label %20, label %33

20:                                               ; preds = %12
  %21 = load i8, ptr %4, align 1, !tbaa !14, !range !16, !noundef !17
  %22 = trunc i8 %21 to i1
  br i1 %22, label %23, label %29

23:                                               ; preds = %20
  %24 = load ptr, ptr %3, align 8, !tbaa !53
  %25 = getelementptr inbounds nuw %struct.H5O_storage_chunk_t, ptr %24, i32 0, i32 1
  store i64 -1, ptr %25, align 8, !tbaa !48
  %26 = load ptr, ptr %3, align 8, !tbaa !53
  %27 = getelementptr inbounds nuw %struct.H5O_storage_chunk_t, ptr %26, i32 0, i32 3
  %28 = getelementptr inbounds nuw %struct.H5O_storage_chunk_earray_t, ptr %27, i32 0, i32 0
  store i64 -1, ptr %28, align 8, !tbaa !26
  br label %29

29:                                               ; preds = %23, %20
  %30 = load ptr, ptr %3, align 8, !tbaa !53
  %31 = getelementptr inbounds nuw %struct.H5O_storage_chunk_t, ptr %30, i32 0, i32 3
  %32 = getelementptr inbounds nuw %struct.H5O_storage_chunk_earray_t, ptr %31, i32 0, i32 1
  store ptr null, ptr %32, align 8, !tbaa !26
  br label %33

33:                                               ; preds = %29, %12
  ret i32 0
}