; Function Attrs: mustprogress nofree norecurse nosync nounwind willreturn memory(read, argmem: write, inaccessiblemem: none) uwtable
define internal noundef i32 @H5D__earray_idx_reset(ptr noundef writeonly captures(none) %0, i1 noundef zeroext %1) #3 {
  %3 = load i8, ptr @H5D_init_g, align 1, !tbaa !3, !range !7, !noundef !8
  %4 = trunc nuw i8 %3 to i1
  %5 = load i8, ptr @H5_libterm_g, align 1, !range !7
  %6 = trunc nuw i8 %5 to i1
  %7 = xor i1 %6, true
  %8 = select i1 %4, i1 true, i1 %7
  br i1 %8, label %9, label %15, !prof !9

9:                                                ; preds = %2
  br i1 %1, label %10, label %13

10:                                               ; preds = %9
  %11 = getelementptr inbounds nuw i8, ptr %0, i64 8
  store i64 -1, ptr %11, align 8, !tbaa !44
  %12 = getelementptr inbounds nuw i8, ptr %0, i64 24
  store i64 -1, ptr %12, align 8, !tbaa !21
  br label %13

13:                                               ; preds = %10, %9
  %14 = getelementptr inbounds nuw i8, ptr %0, i64 32
  store ptr null, ptr %14, align 8, !tbaa !21
  br label %15

15:                                               ; preds = %13, %2
  ret i32 0
}